target datalayout = "e-m:e-p270:32:32-p271:32:32-p272:64:64-i64:64-i128:128-f80:128-n8:16:32:64-S128"
target triple = "x86_64-pc-linux-gnu"

%struct.BufferDesc = type { ptr, i64, i64 }

@g_displayLevel = internal global i32 0, align 4
@stderr = external global ptr, align 8
@.str = private unnamed_addr constant [12 x i8] c"Error %i : \00", align 1
@.str.2 = private unnamed_addr constant [3 x i8] c" \0A\00", align 1
@.str.20 = private unnamed_addr constant [44 x i8] c"Write error : cannot write compressed block\00", align 1

; Function Attrs: nounwind uwtable
define internal void @LZ4IO_writeBuffer(ptr noundef byval(%struct.BufferDesc) align 8 %0, ptr noundef %1) #0 {
  %3 = alloca ptr, align 8
  %4 = alloca i64, align 8
  store ptr %1, ptr %3, align 8, !tbaa !11
  call void @llvm.lifetime.start.p0(i64 8, ptr %4) #13
  %5 = getelementptr inbounds nuw %struct.BufferDesc, ptr %0, i32 0, i32 1
  %6 = load i64, ptr %5, align 8, !tbaa !172
  store i64 %6, ptr %4, align 8, !tbaa !32
  %7 = getelementptr inbounds nuw %struct.BufferDesc, ptr %0, i32 0, i32 0
  %8 = load ptr, ptr %7, align 8, !tbaa !170
  %9 = load i64, ptr %4, align 8, !tbaa !32
  %10 = load ptr, ptr %3, align 8, !tbaa !11
  %11 = call i64 @fwrite(ptr noundef %8, i64 noundef 1, i64 noundef %9, ptr noundef %10)
  %12 = load i64, ptr %4, align 8, !tbaa !32
  %13 = icmp ne i64 %11, %12
  br i1 %13, label %14, label %52

14:                                               ; preds = %2
  %15 = load i32, ptr @g_displayLevel, align 4, !tbaa !9
  %16 = icmp sge i32 %15, 1
  br i1 %16, label %17, label %26

17:                                               ; preds = %14
  %18 = load ptr, ptr @stderr, align 8, !tbaa !11
  %19 = call i32 (ptr, ptr, ...) @fprintf(ptr noundef %18, ptr noundef @.str, i32 noundef 38) #13
  %20 = load i32, ptr @g_displayLevel, align 4, !tbaa !9
  %21 = icmp sge i32 %20, 4
  br i1 %21, label %22, label %25

22:                                               ; preds = %17
  %23 = load ptr, ptr @stderr, align 8, !tbaa !11
  %24 = call i32 @fflush(ptr noundef %23)
  br label %25

25:                                               ; preds = %22, %17
  br label %26

26:                                               ; preds = %25, %14
  %27 = load i32, ptr @g_displayLevel, align 4, !tbaa !9
  %28 = icmp sge i32 %27, 1
  br i1 %28, label %29, label %38

29:                                               ; preds = %26
  %30 = load ptr, ptr @stderr, align 8, !tbaa !11
  %31 = call i32 (ptr, ptr, ...) @fprintf(ptr noundef %30, ptr noundef @.str.20) #13
  %32 = load i32, ptr @g_displayLevel, align 4, !tbaa !9
  %33 = icmp sge i32 %32, 4
  br i1 %33, label %34, label %37

34:                                               ; preds = %29
  %35 = load ptr, ptr @stderr, align 8, !tbaa !11
  %36 = call i32 @fflush(ptr noundef %35)
  br label %37

37:                                               ; preds = %34, %29
  br label %38

38:                                               ; preds = %37, %26
  %39 = load i32, ptr @g_displayLevel, align 4, !tbaa !9
  %40 = icmp sge i32 %39, 1
  br i1 %40, label %41, label %50

41:                                               ; preds = %38
  %42 = load ptr, ptr @stderr, align 8, !tbaa !11
  %43 = call i32 (ptr, ptr, ...) @fprintf(ptr noundef %42, ptr noundef @.str.2) #13
  %44 = load i32, ptr @g_displayLevel, align 4, !tbaa !9
  %45 = icmp sge i32 %44, 4
  br i1 %45, label %46, label %49

46:                                               ; preds = %41
  %47 = load ptr, ptr @stderr, align 8, !tbaa !11
  %48 = call i32 @fflush(ptr noundef %47)
  br label %49

49:                                               ; preds = %46, %41
  br label %50

50:                                               ; preds = %49, %38
  %51 = call i32 @fflush(ptr noundef null)
  call void @exit(i32 noundef 38) #15
  unreachable

52:                                               ; preds = %2
  call void @llvm.lifetime.end.p0(i64 8, ptr %4) #13
  ret void
}