; Function Attrs: nofree nounwind uwtable
define internal fastcc void @LZ4IO_writeBuffer(ptr captures(none) %.0.val, i64 %.8.val, ptr noundef captures(none) %0) unnamed_addr #3 {
  %2 = tail call i64 @fwrite(ptr noundef %.0.val, i64 noundef 1, i64 noundef %.8.val, ptr noundef %0)
  %.not = icmp eq i64 %2, %.8.val
  br i1 %.not, label %36, label %3

3:                                                ; preds = %1
  %4 = load i32, ptr @g_displayLevel, align 4, !tbaa !4
  %5 = icmp sgt i32 %4, 0
  br i1 %5, label %6, label %.thread2

6:                                                ; preds = %3
  %7 = load ptr, ptr @stderr, align 8, !tbaa !8
  %8 = tail call i32 (ptr, ptr, ...) @fprintf(ptr noundef %7, ptr noundef nonnull @.str, i32 noundef 38) #26
  %9 = load i32, ptr @g_displayLevel, align 4, !tbaa !4
  %10 = icmp sgt i32 %9, 3
  br i1 %10, label %11, label %14

11:                                               ; preds = %6
  %12 = load ptr, ptr @stderr, align 8, !tbaa !8
  %13 = tail call i32 @fflush(ptr noundef %12)
  %.pr = load i32, ptr @g_displayLevel, align 4, !tbaa !4
  br label %14

14:                                               ; preds = %6, %11
  %15 = phi i32 [ %9, %6 ], [ %.pr, %11 ]
  %16 = icmp sgt i32 %15, 0
  br i1 %16, label %17, label %.thread2

17:                                               ; preds = %14
  %18 = load ptr, ptr @stderr, align 8, !tbaa !8
  %19 = tail call i64 @fwrite(ptr nonnull @.str.20, i64 43, i64 1, ptr %18) #27
  %20 = load i32, ptr @g_displayLevel, align 4, !tbaa !4
  %21 = icmp sgt i32 %20, 3
  br i1 %21, label %22, label %thread-pre-split

22:                                               ; preds = %17
  %23 = load ptr, ptr @stderr, align 8, !tbaa !8
  %24 = tail call i32 @fflush(ptr noundef %23)
  %.pr1.pre = load i32, ptr @g_displayLevel, align 4, !tbaa !4
  br label %thread-pre-split

thread-pre-split:                                 ; preds = %22, %17
  %25 = phi i32 [ %20, %17 ], [ %.pr1.pre, %22 ]
  %26 = icmp sgt i32 %25, 0
  br i1 %26, label %27, label %.thread2

27:                                               ; preds = %thread-pre-split
  %28 = load ptr, ptr @stderr, align 8, !tbaa !8
  %29 = tail call i64 @fwrite(ptr nonnull @.str.2, i64 2, i64 1, ptr %28) #27
  %30 = load i32, ptr @g_displayLevel, align 4, !tbaa !4
  %31 = icmp sgt i32 %30, 3
  br i1 %31, label %32, label %.thread2

32:                                               ; preds = %27
  %33 = load ptr, ptr @stderr, align 8, !tbaa !8
  %34 = tail call i32 @fflush(ptr noundef %33)
  br label %.thread2

.thread2:                                         ; preds = %14, %3, %27, %32, %thread-pre-split
  %35 = tail call i32 @fflush(ptr noundef null)
  tail call void @exit(i32 noundef 38) #28
  unreachable

36:                                               ; preds = %1
  ret void
}